target datalayout = "e-m:e-p270:32:32-p271:32:32-p272:64:64-i64:64-i128:128-f80:128-n8:16:32:64-S128"
target triple = "x86_64-pc-linux-gnu"

%struct.Vec_Int_t_ = type { i32, i32, ptr }
%struct.Bmc_Mna_t_ = type { ptr, ptr, ptr, ptr, ptr, ptr, ptr, ptr, i32, i64 }

; Function Attrs: inlinehint nounwind uwtable
define internal void @Vec_IntFreeP(ptr noundef %0) #2 {
  %2 = alloca ptr, align 8
  store ptr %0, ptr %2, align 8, !tbaa !62
  %3 = load ptr, ptr %2, align 8, !tbaa !62
  %4 = load ptr, ptr %3, align 8, !tbaa !51
  %5 = icmp eq ptr %4, null
  br i1 %5, label %6, label %7

6:                                                ; preds = %1
  br label %32

7:                                                ; preds = %1
  %8 = load ptr, ptr %2, align 8, !tbaa !62
  %9 = load ptr, ptr %8, align 8, !tbaa !51
  %10 = getelementptr inbounds nuw %struct.Vec_Int_t_, ptr %9, i32 0, i32 2
  %11 = load ptr, ptr %10, align 8, !tbaa !56
  %12 = icmp ne ptr %11, null
  br i1 %12, label %13, label %21

13:                                               ; preds = %7
  %14 = load ptr, ptr %2, align 8, !tbaa !62
  %15 = load ptr, ptr %14, align 8, !tbaa !51
  %16 = getelementptr inbounds nuw %struct.Vec_Int_t_, ptr %15, i32 0, i32 2
  %17 = load ptr, ptr %16, align 8, !tbaa !56
  call void @free(ptr noundef %17) #12
  %18 = load ptr, ptr %2, align 8, !tbaa !62
  %19 = load ptr, ptr %18, align 8, !tbaa !51
  %20 = getelementptr inbounds nuw %struct.Vec_Int_t_, ptr %19, i32 0, i32 2
  store ptr null, ptr %20, align 8, !tbaa !56
  br label %22

21:                                               ; preds = %7
  br label %22

22:                                               ; preds = %21, %13
  %23 = load ptr, ptr %2, align 8, !tbaa !62
  %24 = load ptr, ptr %23, align 8, !tbaa !51
  %25 = icmp ne ptr %24, null
  br i1 %25, label %26, label %30

26:                                               ; preds = %22
  %27 = load ptr, ptr %2, align 8, !tbaa !62
  %28 = load ptr, ptr %27, align 8, !tbaa !51
  call void @free(ptr noundef %28) #12
  %29 = load ptr, ptr %2, align 8, !tbaa !62
  store ptr null, ptr %29, align 8, !tbaa !51
  br label %31

30:                                               ; preds = %22
  br label %31

31:                                               ; preds = %30, %26
  br label %32

32:                                               ; preds = %31, %6
  ret void
}

; Function Attrs: nounwind uwtable
define void @Bmc_MnaFree(ptr noundef %0) #0 {
  %2 = alloca ptr, align 8
  store ptr %0, ptr %2, align 8, !tbaa !76
  %3 = load ptr, ptr %2, align 8, !tbaa !76
  %4 = getelementptr inbounds nuw %struct.Bmc_Mna_t_, ptr %3, i32 0, i32 1
  %5 = load ptr, ptr %4, align 8, !tbaa !88
  call void @Cnf_DataFree(ptr noundef %5)
  %6 = load ptr, ptr %2, align 8, !tbaa !76
  %7 = getelementptr inbounds nuw %struct.Bmc_Mna_t_, ptr %6, i32 0, i32 2
  call void @Vec_IntFreeP(ptr noundef %7)
  %8 = load ptr, ptr %2, align 8, !tbaa !76
  %9 = getelementptr inbounds nuw %struct.Bmc_Mna_t_, ptr %8, i32 0, i32 3
  call void @Vec_IntFreeP(ptr noundef %9)
  %10 = load ptr, ptr %2, align 8, !tbaa !76
  %11 = getelementptr inbounds nuw %struct.Bmc_Mna_t_, ptr %10, i32 0, i32 4
  call void @Vec_IntFreeP(ptr noundef %11)
  %12 = load ptr, ptr %2, align 8, !tbaa !76
  %13 = getelementptr inbounds nuw %struct.Bmc_Mna_t_, ptr %12, i32 0, i32 5
  call void @Vec_IntFreeP(ptr noundef %13)
  %14 = load ptr, ptr %2, align 8, !tbaa !76
  %15 = getelementptr inbounds nuw %struct.Bmc_Mna_t_, ptr %14, i32 0, i32 6
  call void @Vec_IntFreeP(ptr noundef %15)
  %16 = load ptr, ptr %2, align 8, !tbaa !76
  %17 = getelementptr inbounds nuw %struct.Bmc_Mna_t_, ptr %16, i32 0, i32 7
  %18 = load ptr, ptr %17, align 8, !tbaa !85
  call void @sat_solver_delete(ptr noundef %18)
  %19 = load ptr, ptr %2, align 8, !tbaa !76
  %20 = icmp ne ptr %19, null
  br i1 %20, label %21, label %23

21:                                               ; preds = %1
  %22 = load ptr, ptr %2, align 8, !tbaa !76
  call void @free(ptr noundef %22) #12
  store ptr null, ptr %2, align 8, !tbaa !76
  br label %24

23:                                               ; preds = %1
  br label %24

24:                                               ; preds = %23, %21
  ret void
}