; Function Attrs: nounwind uwtable
define void @Bmc_MnaFree(ptr noundef captures(none) %0) local_unnamed_addr #0 {
  %2 = getelementptr inbounds nuw i8, ptr %0, i64 8
  %3 = load ptr, ptr %2, align 8, !tbaa !83
  tail call void @Cnf_DataFree(ptr noundef %3) #19
  %4 = getelementptr inbounds nuw i8, ptr %0, i64 16
  %5 = load ptr, ptr %4, align 8, !tbaa !58
  %6 = icmp eq ptr %5, null
  br i1 %6, label %Vec_IntFreeP.exit, label %7

7:                                                ; preds = %1
  %8 = getelementptr inbounds nuw i8, ptr %5, i64 8
  %9 = load ptr, ptr %8, align 8, !tbaa !37
  %.not.i = icmp eq ptr %9, null
  br i1 %.not.i, label %12, label %.thread.i

.thread.i:                                        ; preds = %7
  tail call void @free(ptr noundef nonnull %9) #19
  %10 = load ptr, ptr %4, align 8, !tbaa !58
  %11 = getelementptr inbounds nuw i8, ptr %10, i64 8
  store ptr null, ptr %11, align 8, !tbaa !37
  br label %12

12:                                               ; preds = %.thread.i, %7
  %13 = phi ptr [ %10, %.thread.i ], [ %5, %7 ]
  tail call void @free(ptr noundef nonnull %13) #19
  store ptr null, ptr %4, align 8, !tbaa !58
  br label %Vec_IntFreeP.exit

Vec_IntFreeP.exit:                                ; preds = %1, %12
  %14 = getelementptr inbounds nuw i8, ptr %0, i64 24
  %15 = load ptr, ptr %14, align 8, !tbaa !58
  %16 = icmp eq ptr %15, null
  br i1 %16, label %Vec_IntFreeP.exit11, label %17

17:                                               ; preds = %Vec_IntFreeP.exit
  %18 = getelementptr inbounds nuw i8, ptr %15, i64 8
  %19 = load ptr, ptr %18, align 8, !tbaa !37
  %.not.i9 = icmp eq ptr %19, null
  br i1 %.not.i9, label %22, label %.thread.i10

.thread.i10:                                      ; preds = %17
  tail call void @free(ptr noundef nonnull %19) #19
  %20 = load ptr, ptr %14, align 8, !tbaa !58
  %21 = getelementptr inbounds nuw i8, ptr %20, i64 8
  store ptr null, ptr %21, align 8, !tbaa !37
  br label %22

22:                                               ; preds = %.thread.i10, %17
  %23 = phi ptr [ %20, %.thread.i10 ], [ %15, %17 ]
  tail call void @free(ptr noundef nonnull %23) #19
  store ptr null, ptr %14, align 8, !tbaa !58
  br label %Vec_IntFreeP.exit11

Vec_IntFreeP.exit11:                              ; preds = %Vec_IntFreeP.exit, %22
  %24 = getelementptr inbounds nuw i8, ptr %0, i64 32
  %25 = load ptr, ptr %24, align 8, !tbaa !58
  %26 = icmp eq ptr %25, null
  br i1 %26, label %Vec_IntFreeP.exit14, label %27

27:                                               ; preds = %Vec_IntFreeP.exit11
  %28 = getelementptr inbounds nuw i8, ptr %25, i64 8
  %29 = load ptr, ptr %28, align 8, !tbaa !37
  %.not.i12 = icmp eq ptr %29, null
  br i1 %.not.i12, label %32, label %.thread.i13

.thread.i13:                                      ; preds = %27
  tail call void @free(ptr noundef nonnull %29) #19
  %30 = load ptr, ptr %24, align 8, !tbaa !58
  %31 = getelementptr inbounds nuw i8, ptr %30, i64 8
  store ptr null, ptr %31, align 8, !tbaa !37
  br label %32

32:                                               ; preds = %.thread.i13, %27
  %33 = phi ptr [ %30, %.thread.i13 ], [ %25, %27 ]
  tail call void @free(ptr noundef nonnull %33) #19
  store ptr null, ptr %24, align 8, !tbaa !58
  br label %Vec_IntFreeP.exit14

Vec_IntFreeP.exit14:                              ; preds = %Vec_IntFreeP.exit11, %32
  %34 = getelementptr inbounds nuw i8, ptr %0, i64 40
  %35 = load ptr, ptr %34, align 8, !tbaa !58
  %36 = icmp eq ptr %35, null
  br i1 %36, label %Vec_IntFreeP.exit17, label %37

37:                                               ; preds = %Vec_IntFreeP.exit14
  %38 = getelementptr inbounds nuw i8, ptr %35, i64 8
  %39 = load ptr, ptr %38, align 8, !tbaa !37
  %.not.i15 = icmp eq ptr %39, null
  br i1 %.not.i15, label %42, label %.thread.i16

.thread.i16:                                      ; preds = %37
  tail call void @free(ptr noundef nonnull %39) #19
  %40 = load ptr, ptr %34, align 8, !tbaa !58
  %41 = getelementptr inbounds nuw i8, ptr %40, i64 8
  store ptr null, ptr %41, align 8, !tbaa !37
  br label %42

42:                                               ; preds = %.thread.i16, %37
  %43 = phi ptr [ %40, %.thread.i16 ], [ %35, %37 ]
  tail call void @free(ptr noundef nonnull %43) #19
  store ptr null, ptr %34, align 8, !tbaa !58
  br label %Vec_IntFreeP.exit17

Vec_IntFreeP.exit17:                              ; preds = %Vec_IntFreeP.exit14, %42
  %44 = getelementptr inbounds nuw i8, ptr %0, i64 48
  %45 = load ptr, ptr %44, align 8, !tbaa !58
  %46 = icmp eq ptr %45, null
  br i1 %46, label %54, label %47

47:                                               ; preds = %Vec_IntFreeP.exit17
  %48 = getelementptr inbounds nuw i8, ptr %45, i64 8
  %49 = load ptr, ptr %48, align 8, !tbaa !37
  %.not.i18 = icmp eq ptr %49, null
  br i1 %.not.i18, label %52, label %.thread.i19

.thread.i19:                                      ; preds = %47
  tail call void @free(ptr noundef nonnull %49) #19
  %50 = load ptr, ptr %44, align 8, !tbaa !58
  %51 = getelementptr inbounds nuw i8, ptr %50, i64 8
  store ptr null, ptr %51, align 8, !tbaa !37
  br label %52

52:                                               ; preds = %.thread.i19, %47
  %53 = phi ptr [ %50, %.thread.i19 ], [ %45, %47 ]
  tail call void @free(ptr noundef nonnull %53) #19
  store ptr null, ptr %44, align 8, !tbaa !58
  br label %54

54:                                               ; preds = %Vec_IntFreeP.exit17, %52
  %55 = getelementptr inbounds nuw i8, ptr %0, i64 56
  %56 = load ptr, ptr %55, align 8, !tbaa !80
  tail call void @sat_solver_delete(ptr noundef %56) #19
  tail call void @free(ptr noundef nonnull %0) #19
  ret void
}